; Function Attrs: mustprogress nounwind uwtable
define dso_local void @_ZN5clang6driver5tools16addDebugInfoKindERN4llvm11SmallVectorIPKcLj16EEENS2_14codegenoptions13DebugInfoKindE(ptr noundef nonnull align 8 dereferenceable(144) %0, i32 noundef %1) local_unnamed_addr #0 {
  switch i32 %1, label %33 [
    i32 2, label %3
    i32 3, label %7
    i32 4, label %11
    i32 5, label %15
    i32 6, label %19
    i32 7, label %23
  ]

3:                                                ; preds = %2
  %4 = tail call noundef i64 @_ZNK4llvm15SmallVectorBaseIjE4sizeEv(ptr noundef nonnull align 8 dereferenceable(16) %0) #21
  %5 = add i64 %4, 1
  %6 = tail call noundef i64 @_ZNK4llvm15SmallVectorBaseIjE8capacityEv(ptr noundef nonnull align 8 dereferenceable(16) %0) #21
  %.not.i.i.i = icmp ugt i64 %5, %6
  br i1 %.not.i.i.i, label %.sink.split.sink.split, label %.sink.split

7:                                                ; preds = %2
  %8 = tail call noundef i64 @_ZNK4llvm15SmallVectorBaseIjE4sizeEv(ptr noundef nonnull align 8 dereferenceable(16) %0) #21
  %9 = add i64 %8, 1
  %10 = tail call noundef i64 @_ZNK4llvm15SmallVectorBaseIjE8capacityEv(ptr noundef nonnull align 8 dereferenceable(16) %0) #21
  %.not.i.i.i6 = icmp ugt i64 %9, %10
  br i1 %.not.i.i.i6, label %.sink.split.sink.split, label %.sink.split

11:                                               ; preds = %2
  %12 = tail call noundef i64 @_ZNK4llvm15SmallVectorBaseIjE4sizeEv(ptr noundef nonnull align 8 dereferenceable(16) %0) #21
  %13 = add i64 %12, 1
  %14 = tail call noundef i64 @_ZNK4llvm15SmallVectorBaseIjE8capacityEv(ptr noundef nonnull align 8 dereferenceable(16) %0) #21
  %.not.i.i.i8 = icmp ugt i64 %13, %14
  br i1 %.not.i.i.i8, label %.sink.split.sink.split, label %.sink.split

15:                                               ; preds = %2
  %16 = tail call noundef i64 @_ZNK4llvm15SmallVectorBaseIjE4sizeEv(ptr noundef nonnull align 8 dereferenceable(16) %0) #21
  %17 = add i64 %16, 1
  %18 = tail call noundef i64 @_ZNK4llvm15SmallVectorBaseIjE8capacityEv(ptr noundef nonnull align 8 dereferenceable(16) %0) #21
  %.not.i.i.i10 = icmp ugt i64 %17, %18
  br i1 %.not.i.i.i10, label %.sink.split.sink.split, label %.sink.split

19:                                               ; preds = %2
  %20 = tail call noundef i64 @_ZNK4llvm15SmallVectorBaseIjE4sizeEv(ptr noundef nonnull align 8 dereferenceable(16) %0) #21
  %21 = add i64 %20, 1
  %22 = tail call noundef i64 @_ZNK4llvm15SmallVectorBaseIjE8capacityEv(ptr noundef nonnull align 8 dereferenceable(16) %0) #21
  %.not.i.i.i12 = icmp ugt i64 %21, %22
  br i1 %.not.i.i.i12, label %.sink.split.sink.split, label %.sink.split

23:                                               ; preds = %2
  %24 = tail call noundef i64 @_ZNK4llvm15SmallVectorBaseIjE4sizeEv(ptr noundef nonnull align 8 dereferenceable(16) %0) #21
  %25 = add i64 %24, 1
  %26 = tail call noundef i64 @_ZNK4llvm15SmallVectorBaseIjE8capacityEv(ptr noundef nonnull align 8 dereferenceable(16) %0) #21
  %.not.i.i.i14 = icmp ugt i64 %25, %26
  br i1 %.not.i.i.i14, label %.sink.split.sink.split, label %.sink.split

.sink.split.sink.split:                           ; preds = %23, %19, %15, %11, %7, %3
  %.sink21 = phi i64 [ %5, %3 ], [ %9, %7 ], [ %13, %11 ], [ %17, %15 ], [ %21, %19 ], [ %25, %23 ]
  %.sink.ph = phi i64 [ ptrtoint (ptr @.str.149 to i64), %3 ], [ ptrtoint (ptr @.str.150 to i64), %7 ], [ ptrtoint (ptr @.str.151 to i64), %11 ], [ ptrtoint (ptr @.str.152 to i64), %15 ], [ ptrtoint (ptr @.str.153 to i64), %19 ], [ ptrtoint (ptr @.str.154 to i64), %23 ]
  %27 = getelementptr inbounds nuw i8, ptr %0, i64 16
  tail call void @_ZN4llvm15SmallVectorBaseIjE8grow_podEPvmm(ptr noundef nonnull align 8 dereferenceable(16) %0, ptr noundef nonnull %27, i64 noundef %.sink21, i64 noundef 8) #21
  br label %.sink.split

.sink.split:                                      ; preds = %.sink.split.sink.split, %23, %19, %15, %11, %7, %3
  %.sink = phi i64 [ ptrtoint (ptr @.str.149 to i64), %3 ], [ ptrtoint (ptr @.str.150 to i64), %7 ], [ ptrtoint (ptr @.str.151 to i64), %11 ], [ ptrtoint (ptr @.str.152 to i64), %15 ], [ ptrtoint (ptr @.str.153 to i64), %19 ], [ ptrtoint (ptr @.str.154 to i64), %23 ], [ %.sink.ph, %.sink.split.sink.split ]
  %28 = load ptr, ptr %0, align 8
  %29 = tail call noundef i64 @_ZNK4llvm15SmallVectorBaseIjE4sizeEv(ptr noundef nonnull align 8 dereferenceable(16) %0) #21
  %30 = getelementptr inbounds ptr, ptr %28, i64 %29
  store i64 %.sink, ptr %30, align 1
  %31 = tail call noundef i64 @_ZNK4llvm15SmallVectorBaseIjE4sizeEv(ptr noundef nonnull align 8 dereferenceable(16) %0) #21
  %32 = add i64 %31, 1
  tail call void @_ZN4llvm15SmallVectorBaseIjE8set_sizeEm(ptr noundef nonnull align 8 dereferenceable(16) %0, i64 noundef %32) #21
  br label %33

33:                                               ; preds = %.sink.split, %2
  ret void
}